; Function Attrs: mustprogress uwtable
define void @_ZNK19OpenColorIO_v2_5dev12GPUProcessor20extractGpuShaderInfoERSt10shared_ptrINS_13GpuShaderDescEE(ptr noundef nonnull readonly align 8 captures(none) dereferenceable(8) %0, ptr noundef nonnull readonly align 8 captures(none) dereferenceable(16) %1) local_unnamed_addr #3 align 2 personality ptr @__gxx_personality_v0 {
  %3 = alloca %"class.std::shared_ptr.16", align 8
  call void @llvm.lifetime.start.p0(i64 16, ptr nonnull %3) #22
  tail call void @llvm.experimental.noalias.scope.decl(metadata !70)
  tail call void @llvm.experimental.noalias.scope.decl(metadata !73)
  %4 = load ptr, ptr %1, align 8, !tbaa !76, !noalias !79
  %.not.not.i.i = icmp eq ptr %4, null
  br i1 %.not.not.i.i, label %_ZNSt10shared_ptrIN19OpenColorIO_v2_5dev16GpuShaderCreatorEEC2INS0_13GpuShaderDescEEERKS_IT_EPS1_.exit.i.i, label %5

5:                                                ; preds = %2
  store ptr %4, ptr %3, align 8, !tbaa !56, !alias.scope !79
  %6 = getelementptr inbounds nuw i8, ptr %3, i64 8
  %7 = getelementptr inbounds nuw i8, ptr %1, i64 8
  %8 = load ptr, ptr %7, align 8, !tbaa !80, !noalias !79
  store ptr %8, ptr %6, align 8, !tbaa !80, !alias.scope !79
  %.not.i.i.i.i.i = icmp eq ptr %8, null
  br i1 %.not.i.i.i.i.i, label %_ZN19OpenColorIO_v2_5dev14DynamicPtrCastINS_16GpuShaderCreatorENS_13GpuShaderDescEEESt10shared_ptrIT_ERKS3_IT0_E.exit, label %9

9:                                                ; preds = %5
  %10 = getelementptr inbounds nuw i8, ptr %8, i64 8
  %11 = load i8, ptr @__libc_single_threaded, align 1, !tbaa !36, !noalias !79
  %.not.i.i.i.i.i.i = icmp eq i8 %11, 0
  br i1 %.not.i.i.i.i.i.i, label %15, label %12

12:                                               ; preds = %9
  %13 = load i32, ptr %10, align 4, !tbaa !81, !noalias !79
  %14 = add nsw i32 %13, 1
  store i32 %14, ptr %10, align 4, !tbaa !81, !noalias !79
  br label %_ZN19OpenColorIO_v2_5dev14DynamicPtrCastINS_16GpuShaderCreatorENS_13GpuShaderDescEEESt10shared_ptrIT_ERKS3_IT0_E.exit

15:                                               ; preds = %9
  %16 = atomicrmw volatile add ptr %10, i32 1 acq_rel, align 4, !noalias !79
  br label %_ZN19OpenColorIO_v2_5dev14DynamicPtrCastINS_16GpuShaderCreatorENS_13GpuShaderDescEEESt10shared_ptrIT_ERKS3_IT0_E.exit

_ZNSt10shared_ptrIN19OpenColorIO_v2_5dev16GpuShaderCreatorEEC2INS0_13GpuShaderDescEEERKS_IT_EPS1_.exit.i.i: ; preds = %2
  call void @llvm.memset.p0.i64(ptr noundef nonnull align 8 dereferenceable(16) %3, i8 0, i64 16, i1 false), !alias.scope !79
  br label %_ZN19OpenColorIO_v2_5dev14DynamicPtrCastINS_16GpuShaderCreatorENS_13GpuShaderDescEEESt10shared_ptrIT_ERKS3_IT0_E.exit

_ZN19OpenColorIO_v2_5dev14DynamicPtrCastINS_16GpuShaderCreatorENS_13GpuShaderDescEEESt10shared_ptrIT_ERKS3_IT0_E.exit: ; preds = %5, %12, %15, %_ZNSt10shared_ptrIN19OpenColorIO_v2_5dev16GpuShaderCreatorEEC2INS0_13GpuShaderDescEEERKS_IT_EPS1_.exit.i.i
  %17 = load ptr, ptr %0, align 8, !tbaa !65
  invoke void @_ZNK19OpenColorIO_v2_5dev12GPUProcessor4Impl20extractGpuShaderInfoERSt10shared_ptrINS_16GpuShaderCreatorEE(ptr noundef nonnull align 8 dereferenceable(224) %17, ptr noundef nonnull align 8 dereferenceable(16) %3)
          to label %18 unwind label %42

18:                                               ; preds = %_ZN19OpenColorIO_v2_5dev14DynamicPtrCastINS_16GpuShaderCreatorENS_13GpuShaderDescEEESt10shared_ptrIT_ERKS3_IT0_E.exit
  %19 = getelementptr inbounds nuw i8, ptr %3, i64 8
  %20 = load ptr, ptr %19, align 8, !tbaa !80
  %.not.i.i = icmp eq ptr %20, null
  br i1 %.not.i.i, label %_ZNSt12__shared_ptrIN19OpenColorIO_v2_5dev16GpuShaderCreatorELN9__gnu_cxx12_Lock_policyE2EED2Ev.exit, label %21

21:                                               ; preds = %18
  %22 = getelementptr inbounds nuw i8, ptr %20, i64 8
  %23 = load atomic i64, ptr %22 acquire, align 8
  %24 = icmp eq i64 %23, 4294967297
  %25 = trunc i64 %23 to i32
  br i1 %24, label %26, label %34

26:                                               ; preds = %21
  store i32 0, ptr %22, align 8, !tbaa !83
  %27 = getelementptr inbounds nuw i8, ptr %20, i64 12
  store i32 0, ptr %27, align 4, !tbaa !85
  %28 = load ptr, ptr %20, align 8, !tbaa !51
  %29 = getelementptr inbounds nuw i8, ptr %28, i64 16
  %30 = load ptr, ptr %29, align 8
  call void %30(ptr noundef nonnull align 8 dereferenceable(16) %20) #22
  %31 = load ptr, ptr %20, align 8, !tbaa !51
  %32 = getelementptr inbounds nuw i8, ptr %31, i64 24
  %33 = load ptr, ptr %32, align 8
  call void %33(ptr noundef nonnull align 8 dereferenceable(16) %20) #22
  br label %_ZNSt12__shared_ptrIN19OpenColorIO_v2_5dev16GpuShaderCreatorELN9__gnu_cxx12_Lock_policyE2EED2Ev.exit

34:                                               ; preds = %21
  %35 = load i8, ptr @__libc_single_threaded, align 1, !tbaa !36
  %.not.i.i.i = icmp eq i8 %35, 0
  br i1 %.not.i.i.i, label %38, label %36

36:                                               ; preds = %34
  %37 = add nsw i32 %25, -1
  store i32 %37, ptr %22, align 4, !tbaa !81
  br label %_ZN9__gnu_cxx27__exchange_and_add_dispatchEPii.exit.i.i.i

38:                                               ; preds = %34
  %39 = atomicrmw volatile add ptr %22, i32 -1 acq_rel, align 4
  br label %_ZN9__gnu_cxx27__exchange_and_add_dispatchEPii.exit.i.i.i

_ZN9__gnu_cxx27__exchange_and_add_dispatchEPii.exit.i.i.i: ; preds = %38, %36
  %.0.i.i.i.i = phi i32 [ %25, %36 ], [ %39, %38 ]
  %40 = icmp eq i32 %.0.i.i.i.i, 1
  br i1 %40, label %41, label %_ZNSt12__shared_ptrIN19OpenColorIO_v2_5dev16GpuShaderCreatorELN9__gnu_cxx12_Lock_policyE2EED2Ev.exit, !prof !50

41:                                               ; preds = %_ZN9__gnu_cxx27__exchange_and_add_dispatchEPii.exit.i.i.i
  call void @_ZNSt16_Sp_counted_baseILN9__gnu_cxx12_Lock_policyE2EE24_M_release_last_use_coldEv(ptr noundef nonnull align 8 dereferenceable(16) %20) #22
  br label %_ZNSt12__shared_ptrIN19OpenColorIO_v2_5dev16GpuShaderCreatorELN9__gnu_cxx12_Lock_policyE2EED2Ev.exit

_ZNSt12__shared_ptrIN19OpenColorIO_v2_5dev16GpuShaderCreatorELN9__gnu_cxx12_Lock_policyE2EED2Ev.exit: ; preds = %18, %26, %_ZN9__gnu_cxx27__exchange_and_add_dispatchEPii.exit.i.i.i, %41
  call void @llvm.lifetime.end.p0(i64 16, ptr nonnull %3) #22
  ret void

42:                                               ; preds = %_ZN19OpenColorIO_v2_5dev14DynamicPtrCastINS_16GpuShaderCreatorENS_13GpuShaderDescEEESt10shared_ptrIT_ERKS3_IT0_E.exit
  %43 = landingpad { ptr, i32 }
          cleanup
  call void @_ZNSt12__shared_ptrIN19OpenColorIO_v2_5dev16GpuShaderCreatorELN9__gnu_cxx12_Lock_policyE2EED2Ev(ptr noundef nonnull align 8 dereferenceable(16) %3) #22
  call void @llvm.lifetime.end.p0(i64 16, ptr nonnull %3) #22
  resume { ptr, i32 } %43
}